target datalayout = "e-m:e-p270:32:32-p271:32:32-p272:64:64-i64:64-i128:128-f80:128-n8:16:32:64-S128"
target triple = "x86_64-pc-linux-gnu"

%struct.SHA512state_st = type { [8 x i64], i64, i64, %union.anon.0, i32, i32 }
%union.anon.0 = type { [16 x i64] }

; Function Attrs: nounwind uwtable
define internal void @tls1_sha512_final_raw(ptr noundef %0, ptr noundef %1) #0 {
  %3 = alloca ptr, align 8
  %4 = alloca ptr, align 8
  %5 = alloca ptr, align 8
  %6 = alloca i32, align 4
  store ptr %0, ptr %3, align 8, !tbaa !19
  store ptr %1, ptr %4, align 8, !tbaa !8
  call void @llvm.lifetime.start.p0(i64 8, ptr %5) #7
  %7 = load ptr, ptr %3, align 8, !tbaa !19
  store ptr %7, ptr %5, align 8, !tbaa !46
  call void @llvm.lifetime.start.p0(i64 4, ptr %6) #7
  store i32 0, ptr %6, align 4, !tbaa !17
  br label %8

8:                                                ; preds = %99, %2
  %9 = load i32, ptr %6, align 4, !tbaa !17
  %10 = icmp ult i32 %9, 8
  br i1 %10, label %11, label %102

11:                                               ; preds = %8
  %12 = load ptr, ptr %5, align 8, !tbaa !46
  %13 = getelementptr inbounds nuw %struct.SHA512state_st, ptr %12, i32 0, i32 0
  %14 = load i32, ptr %6, align 4, !tbaa !17
  %15 = zext i32 %14 to i64
  %16 = getelementptr inbounds nuw [8 x i64], ptr %13, i64 0, i64 %15
  %17 = load i64, ptr %16, align 8, !tbaa !48
  %18 = lshr i64 %17, 56
  %19 = and i64 %18, 255
  %20 = trunc i64 %19 to i8
  %21 = load ptr, ptr %4, align 8, !tbaa !8
  %22 = getelementptr inbounds nuw i8, ptr %21, i32 1
  store ptr %22, ptr %4, align 8, !tbaa !8
  store i8 %20, ptr %21, align 1, !tbaa !14
  %23 = load ptr, ptr %5, align 8, !tbaa !46
  %24 = getelementptr inbounds nuw %struct.SHA512state_st, ptr %23, i32 0, i32 0
  %25 = load i32, ptr %6, align 4, !tbaa !17
  %26 = zext i32 %25 to i64
  %27 = getelementptr inbounds nuw [8 x i64], ptr %24, i64 0, i64 %26
  %28 = load i64, ptr %27, align 8, !tbaa !48
  %29 = lshr i64 %28, 48
  %30 = and i64 %29, 255
  %31 = trunc i64 %30 to i8
  %32 = load ptr, ptr %4, align 8, !tbaa !8
  %33 = getelementptr inbounds nuw i8, ptr %32, i32 1
  store ptr %33, ptr %4, align 8, !tbaa !8
  store i8 %31, ptr %32, align 1, !tbaa !14
  %34 = load ptr, ptr %5, align 8, !tbaa !46
  %35 = getelementptr inbounds nuw %struct.SHA512state_st, ptr %34, i32 0, i32 0
  %36 = load i32, ptr %6, align 4, !tbaa !17
  %37 = zext i32 %36 to i64
  %38 = getelementptr inbounds nuw [8 x i64], ptr %35, i64 0, i64 %37
  %39 = load i64, ptr %38, align 8, !tbaa !48
  %40 = lshr i64 %39, 40
  %41 = and i64 %40, 255
  %42 = trunc i64 %41 to i8
  %43 = load ptr, ptr %4, align 8, !tbaa !8
  %44 = getelementptr inbounds nuw i8, ptr %43, i32 1
  store ptr %44, ptr %4, align 8, !tbaa !8
  store i8 %42, ptr %43, align 1, !tbaa !14
  %45 = load ptr, ptr %5, align 8, !tbaa !46
  %46 = getelementptr inbounds nuw %struct.SHA512state_st, ptr %45, i32 0, i32 0
  %47 = load i32, ptr %6, align 4, !tbaa !17
  %48 = zext i32 %47 to i64
  %49 = getelementptr inbounds nuw [8 x i64], ptr %46, i64 0, i64 %48
  %50 = load i64, ptr %49, align 8, !tbaa !48
  %51 = lshr i64 %50, 32
  %52 = and i64 %51, 255
  %53 = trunc i64 %52 to i8
  %54 = load ptr, ptr %4, align 8, !tbaa !8
  %55 = getelementptr inbounds nuw i8, ptr %54, i32 1
  store ptr %55, ptr %4, align 8, !tbaa !8
  store i8 %53, ptr %54, align 1, !tbaa !14
  %56 = load ptr, ptr %5, align 8, !tbaa !46
  %57 = getelementptr inbounds nuw %struct.SHA512state_st, ptr %56, i32 0, i32 0
  %58 = load i32, ptr %6, align 4, !tbaa !17
  %59 = zext i32 %58 to i64
  %60 = getelementptr inbounds nuw [8 x i64], ptr %57, i64 0, i64 %59
  %61 = load i64, ptr %60, align 8, !tbaa !48
  %62 = lshr i64 %61, 24
  %63 = and i64 %62, 255
  %64 = trunc i64 %63 to i8
  %65 = load ptr, ptr %4, align 8, !tbaa !8
  %66 = getelementptr inbounds nuw i8, ptr %65, i32 1
  store ptr %66, ptr %4, align 8, !tbaa !8
  store i8 %64, ptr %65, align 1, !tbaa !14
  %67 = load ptr, ptr %5, align 8, !tbaa !46
  %68 = getelementptr inbounds nuw %struct.SHA512state_st, ptr %67, i32 0, i32 0
  %69 = load i32, ptr %6, align 4, !tbaa !17
  %70 = zext i32 %69 to i64
  %71 = getelementptr inbounds nuw [8 x i64], ptr %68, i64 0, i64 %70
  %72 = load i64, ptr %71, align 8, !tbaa !48
  %73 = lshr i64 %72, 16
  %74 = and i64 %73, 255
  %75 = trunc i64 %74 to i8
  %76 = load ptr, ptr %4, align 8, !tbaa !8
  %77 = getelementptr inbounds nuw i8, ptr %76, i32 1
  store ptr %77, ptr %4, align 8, !tbaa !8
  store i8 %75, ptr %76, align 1, !tbaa !14
  %78 = load ptr, ptr %5, align 8, !tbaa !46
  %79 = getelementptr inbounds nuw %struct.SHA512state_st, ptr %78, i32 0, i32 0
  %80 = load i32, ptr %6, align 4, !tbaa !17
  %81 = zext i32 %80 to i64
  %82 = getelementptr inbounds nuw [8 x i64], ptr %79, i64 0, i64 %81
  %83 = load i64, ptr %82, align 8, !tbaa !48
  %84 = lshr i64 %83, 8
  %85 = and i64 %84, 255
  %86 = trunc i64 %85 to i8
  %87 = load ptr, ptr %4, align 8, !tbaa !8
  %88 = getelementptr inbounds nuw i8, ptr %87, i32 1
  store ptr %88, ptr %4, align 8, !tbaa !8
  store i8 %86, ptr %87, align 1, !tbaa !14
  %89 = load ptr, ptr %5, align 8, !tbaa !46
  %90 = getelementptr inbounds nuw %struct.SHA512state_st, ptr %89, i32 0, i32 0
  %91 = load i32, ptr %6, align 4, !tbaa !17
  %92 = zext i32 %91 to i64
  %93 = getelementptr inbounds nuw [8 x i64], ptr %90, i64 0, i64 %92
  %94 = load i64, ptr %93, align 8, !tbaa !48
  %95 = and i64 %94, 255
  %96 = trunc i64 %95 to i8
  %97 = load ptr, ptr %4, align 8, !tbaa !8
  %98 = getelementptr inbounds nuw i8, ptr %97, i32 1
  store ptr %98, ptr %4, align 8, !tbaa !8
  store i8 %96, ptr %97, align 1, !tbaa !14
  br label %99

99:                                               ; preds = %11
  %100 = load i32, ptr %6, align 4, !tbaa !17
  %101 = add i32 %100, 1
  store i32 %101, ptr %6, align 4, !tbaa !17
  br label %8, !llvm.loop !50

102:                                              ; preds = %8
  call void @llvm.lifetime.end.p0(i64 4, ptr %6) #7
  call void @llvm.lifetime.end.p0(i64 8, ptr %5) #7
  ret void
}