; Function Attrs: nofree norecurse nosync nounwind memory(argmem: readwrite) uwtable
define internal void @tls1_sha512_final_raw(ptr noundef readonly captures(none) %0, ptr noundef writeonly captures(none) %1) unnamed_addr #4 {
  br label %3

3:                                                ; preds = %2, %3
  %indvars.iv = phi i64 [ 0, %2 ], [ %indvars.iv.next, %3 ]
  %.02627 = phi ptr [ %1, %2 ], [ %35, %3 ]
  %4 = getelementptr inbounds nuw [8 x i64], ptr %0, i64 0, i64 %indvars.iv
  %5 = load i64, ptr %4, align 8, !tbaa !34
  %6 = lshr i64 %5, 56
  %7 = trunc nuw i64 %6 to i8
  %8 = getelementptr inbounds nuw i8, ptr %.02627, i64 1
  store i8 %7, ptr %.02627, align 1, !tbaa !8
  %9 = load i64, ptr %4, align 8, !tbaa !34
  %10 = lshr i64 %9, 48
  %11 = trunc i64 %10 to i8
  %12 = getelementptr inbounds nuw i8, ptr %.02627, i64 2
  store i8 %11, ptr %8, align 1, !tbaa !8
  %13 = load i64, ptr %4, align 8, !tbaa !34
  %14 = lshr i64 %13, 40
  %15 = trunc i64 %14 to i8
  %16 = getelementptr inbounds nuw i8, ptr %.02627, i64 3
  store i8 %15, ptr %12, align 1, !tbaa !8
  %17 = load i64, ptr %4, align 8, !tbaa !34
  %18 = lshr i64 %17, 32
  %19 = trunc i64 %18 to i8
  %20 = getelementptr inbounds nuw i8, ptr %.02627, i64 4
  store i8 %19, ptr %16, align 1, !tbaa !8
  %21 = load i64, ptr %4, align 8, !tbaa !34
  %22 = lshr i64 %21, 24
  %23 = trunc i64 %22 to i8
  %24 = getelementptr inbounds nuw i8, ptr %.02627, i64 5
  store i8 %23, ptr %20, align 1, !tbaa !8
  %25 = load i64, ptr %4, align 8, !tbaa !34
  %26 = lshr i64 %25, 16
  %27 = trunc i64 %26 to i8
  %28 = getelementptr inbounds nuw i8, ptr %.02627, i64 6
  store i8 %27, ptr %24, align 1, !tbaa !8
  %29 = load i64, ptr %4, align 8, !tbaa !34
  %30 = lshr i64 %29, 8
  %31 = trunc i64 %30 to i8
  %32 = getelementptr inbounds nuw i8, ptr %.02627, i64 7
  store i8 %31, ptr %28, align 1, !tbaa !8
  %33 = load i64, ptr %4, align 8, !tbaa !34
  %34 = trunc i64 %33 to i8
  %35 = getelementptr inbounds nuw i8, ptr %.02627, i64 8
  store i8 %34, ptr %32, align 1, !tbaa !8
  %indvars.iv.next = add nuw nsw i64 %indvars.iv, 1
  %exitcond.not = icmp eq i64 %indvars.iv.next, 8
  br i1 %exitcond.not, label %36, label %3, !llvm.loop !36

36:                                               ; preds = %3
  ret void
}